target datalayout = "e-m:e-p270:32:32-p271:32:32-p272:64:64-i64:64-i128:128-f80:128-n8:16:32:64-S128"
target triple = "x86_64-unknown-linux-gnu"

; Function Attrs: nounwind uwtable
define hidden i32 @ASN1_put_eoc(ptr noundef %pp) #0 {
entry:
  %pp.addr = alloca ptr, align 8
  %p = alloca ptr, align 8
  store ptr %pp, ptr %pp.addr, align 8
  %0 = load ptr, ptr %pp.addr, align 8
  %1 = load ptr, ptr %0, align 8
  store ptr %1, ptr %p, align 8
  %2 = load ptr, ptr %p, align 8
  %incdec.ptr = getelementptr inbounds i8, ptr %2, i32 1
  store ptr %incdec.ptr, ptr %p, align 8
  store i8 0, ptr %2, align 1
  %3 = load ptr, ptr %p, align 8
  %incdec.ptr1 = getelementptr inbounds i8, ptr %3, i32 1
  store ptr %incdec.ptr1, ptr %p, align 8
  store i8 0, ptr %3, align 1
  %4 = load ptr, ptr %p, align 8
  %5 = load ptr, ptr %pp.addr, align 8
  store ptr %4, ptr %5, align 8
  ret i32 2
}