; Function Attrs: mustprogress nofree norecurse nosync nounwind willreturn memory(write, argmem: readwrite, inaccessiblemem: none) uwtable
define hidden noundef i32 @ASN1_put_eoc(ptr noundef captures(none) %pp) local_unnamed_addr #4 {
entry:
  %0 = load ptr, ptr %pp, align 8
  %incdec.ptr = getelementptr inbounds nuw i8, ptr %0, i64 1
  store i8 0, ptr %0, align 1
  %incdec.ptr1 = getelementptr inbounds nuw i8, ptr %0, i64 2
  store i8 0, ptr %incdec.ptr, align 1
  store ptr %incdec.ptr1, ptr %pp, align 8
  ret i32 2
}